target datalayout = "e-m:e-p270:32:32-p271:32:32-p272:64:64-i64:64-i128:128-f80:128-n8:16:32:64-S128"
target triple = "x86_64-pc-linux-gnu"

%struct._qsig_op_t = type { i32, ptr, ptr }
%struct._qsig_err_t = type { i32, ptr }

@proto_qsig = internal global i32 0, align 4
@qsig_arg_handle = internal global ptr null, align 8
@qsig_res_handle = internal global ptr null, align 8
@qsig_err_handle = internal global ptr null, align 8
@qsig_ie4_handle = internal global ptr null, align 8
@qsig_ie5_handle = internal global ptr null, align 8
@.str.1450 = private unnamed_addr constant [5 x i8] c"q931\00", align 1
@.str.1451 = private unnamed_addr constant [8 x i8] c"q931.ie\00", align 1
@q931_ie_handle = internal global ptr null, align 8
@.str.1452 = private unnamed_addr constant [19 x i8] c"q932.ros.local.arg\00", align 1
@.str.1453 = private unnamed_addr constant [19 x i8] c"q932.ros.local.res\00", align 1
@.str.1454 = private unnamed_addr constant [12 x i8] c"1.3.12.9.%d\00", align 1
@.str.1455 = private unnamed_addr constant [20 x i8] c"q932.ros.global.arg\00", align 1
@.str.1456 = private unnamed_addr constant [20 x i8] c"q932.ros.global.res\00", align 1
@.str.1457 = private unnamed_addr constant [19 x i8] c"q932.ros.local.err\00", align 1
@.str.1458 = private unnamed_addr constant [11 x i8] c"media_type\00", align 1
@.str.1459 = private unnamed_addr constant [17 x i8] c"application/qsig\00", align 1

; Function Attrs: null_pointer_is_valid sspstrong uwtable
define hidden void @proto_reg_handoff_qsig() #0 {
  %1 = alloca i32, align 4
  %2 = alloca ptr, align 8
  %3 = alloca ptr, align 8
  call void @llvm.lifetime.start.p0(i64 4, ptr %1) #6
  call void @llvm.lifetime.start.p0(i64 8, ptr %2) #6
  call void @llvm.lifetime.start.p0(i64 8, ptr %3) #6
  %4 = load i32, ptr @proto_qsig, align 4
  %5 = call ptr @find_dissector_add_dependency(ptr noundef @.str.1450, i32 noundef %4)
  store ptr %5, ptr %3, align 8
  %6 = load i32, ptr @proto_qsig, align 4
  %7 = call ptr @find_dissector_add_dependency(ptr noundef @.str.1451, i32 noundef %6)
  store ptr %7, ptr @q931_ie_handle, align 8
  store i32 0, ptr %1, align 4
  br label %8

8:                                                ; preds = %35, %0
  %9 = load i32, ptr %1, align 4
  %10 = icmp slt i32 %9, 122
  br i1 %10, label %11, label %38

11:                                               ; preds = %8
  %12 = load i32, ptr %1, align 4
  %13 = sext i32 %12 to i64
  %14 = getelementptr [122 x %struct._qsig_op_t], ptr @qsig_op_tab, i64 0, i64 %13
  %15 = getelementptr inbounds nuw %struct._qsig_op_t, ptr %14, i32 0, i32 0
  %16 = load i32, ptr %15, align 8
  %17 = load ptr, ptr @qsig_arg_handle, align 8
  call void @dissector_add_uint(ptr noundef @.str.1452, i32 noundef %16, ptr noundef %17)
  %18 = load i32, ptr %1, align 4
  %19 = sext i32 %18 to i64
  %20 = getelementptr [122 x %struct._qsig_op_t], ptr @qsig_op_tab, i64 0, i64 %19
  %21 = getelementptr inbounds nuw %struct._qsig_op_t, ptr %20, i32 0, i32 0
  %22 = load i32, ptr %21, align 8
  %23 = load ptr, ptr @qsig_res_handle, align 8
  call void @dissector_add_uint(ptr noundef @.str.1453, i32 noundef %22, ptr noundef %23)
  %24 = load i32, ptr %1, align 4
  %25 = sext i32 %24 to i64
  %26 = getelementptr [122 x %struct._qsig_op_t], ptr @qsig_op_tab, i64 0, i64 %25
  %27 = getelementptr inbounds nuw %struct._qsig_op_t, ptr %26, i32 0, i32 0
  %28 = load i32, ptr %27, align 8
  %29 = call noalias ptr (ptr, ptr, ...) @wmem_strdup_printf(ptr noundef null, ptr noundef @.str.1454, i32 noundef %28)
  store ptr %29, ptr %2, align 8
  %30 = load ptr, ptr %2, align 8
  %31 = load ptr, ptr @qsig_arg_handle, align 8
  call void @dissector_add_string(ptr noundef @.str.1455, ptr noundef %30, ptr noundef %31)
  %32 = load ptr, ptr %2, align 8
  %33 = load ptr, ptr @qsig_res_handle, align 8
  call void @dissector_add_string(ptr noundef @.str.1456, ptr noundef %32, ptr noundef %33)
  %34 = load ptr, ptr %2, align 8
  call void @wmem_free(ptr noundef null, ptr noundef %34)
  br label %35

35:                                               ; preds = %11
  %36 = load i32, ptr %1, align 4
  %37 = add i32 %36, 1
  store i32 %37, ptr %1, align 4
  br label %8, !llvm.loop !8

38:                                               ; preds = %8
  store i32 0, ptr %1, align 4
  br label %39

39:                                               ; preds = %49, %38
  %40 = load i32, ptr %1, align 4
  %41 = icmp slt i32 %40, 91
  br i1 %41, label %42, label %52

42:                                               ; preds = %39
  %43 = load i32, ptr %1, align 4
  %44 = sext i32 %43 to i64
  %45 = getelementptr [91 x %struct._qsig_err_t], ptr @qsig_err_tab, i64 0, i64 %44
  %46 = getelementptr inbounds nuw %struct._qsig_err_t, ptr %45, i32 0, i32 0
  %47 = load i32, ptr %46, align 16
  %48 = load ptr, ptr @qsig_err_handle, align 8
  call void @dissector_add_uint(ptr noundef @.str.1457, i32 noundef %47, ptr noundef %48)
  br label %49

49:                                               ; preds = %42
  %50 = load i32, ptr %1, align 4
  %51 = add i32 %50, 1
  store i32 %51, ptr %1, align 4
  br label %39, !llvm.loop !10

52:                                               ; preds = %39
  %53 = load ptr, ptr @qsig_ie4_handle, align 8
  call void @dissector_add_uint(ptr noundef @.str.1451, i32 noundef 1073, ptr noundef %53)
  %54 = load ptr, ptr @qsig_ie5_handle, align 8
  call void @dissector_add_uint(ptr noundef @.str.1451, i32 noundef 1330, ptr noundef %54)
  %55 = load ptr, ptr %3, align 8
  call void @dissector_add_string(ptr noundef @.str.1458, ptr noundef @.str.1459, ptr noundef %55)
  call void @llvm.lifetime.end.p0(i64 8, ptr %3) #6
  call void @llvm.lifetime.end.p0(i64 8, ptr %2) #6
  call void @llvm.lifetime.end.p0(i64 4, ptr %1) #6
  ret void
}