; Function Attrs: null_pointer_is_valid sspstrong uwtable
define hidden void @proto_reg_handoff_qsig() local_unnamed_addr #0 {
  %1 = load i32, ptr @proto_qsig, align 4
  %2 = tail call ptr @find_dissector_add_dependency(ptr noundef nonnull @.str.1450, i32 noundef %1)
  %3 = load i32, ptr @proto_qsig, align 4
  %4 = tail call ptr @find_dissector_add_dependency(ptr noundef nonnull @.str.1451, i32 noundef %3)
  store ptr %4, ptr @q931_ie_handle, align 8
  br label %5

5:                                                ; preds = %0, %5
  %indvars.iv = phi i64 [ 0, %0 ], [ %indvars.iv.next, %5 ]
  %6 = getelementptr [122 x %struct._qsig_op_t], ptr @qsig_op_tab, i64 0, i64 %indvars.iv
  %7 = load i32, ptr %6, align 8
  %8 = load ptr, ptr @qsig_arg_handle, align 8
  tail call void @dissector_add_uint(ptr noundef nonnull @.str.1452, i32 noundef %7, ptr noundef %8)
  %9 = load ptr, ptr @qsig_res_handle, align 8
  tail call void @dissector_add_uint(ptr noundef nonnull @.str.1453, i32 noundef %7, ptr noundef %9)
  %10 = tail call noalias ptr (ptr, ptr, ...) @wmem_strdup_printf(ptr noundef null, ptr noundef nonnull @.str.1454, i32 noundef %7)
  %11 = load ptr, ptr @qsig_arg_handle, align 8
  tail call void @dissector_add_string(ptr noundef nonnull @.str.1455, ptr noundef %10, ptr noundef %11)
  %12 = load ptr, ptr @qsig_res_handle, align 8
  tail call void @dissector_add_string(ptr noundef nonnull @.str.1456, ptr noundef %10, ptr noundef %12)
  tail call void @wmem_free(ptr noundef null, ptr noundef %10)
  %indvars.iv.next = add nuw nsw i64 %indvars.iv, 1
  %exitcond.not = icmp eq i64 %indvars.iv.next, 122
  br i1 %exitcond.not, label %.preheader, label %5, !llvm.loop !9

.preheader:                                       ; preds = %5, %.preheader
  %indvars.iv14 = phi i64 [ %indvars.iv.next15, %.preheader ], [ 0, %5 ]
  %13 = getelementptr [91 x %struct._qsig_err_t], ptr @qsig_err_tab, i64 0, i64 %indvars.iv14
  %14 = load i32, ptr %13, align 16
  %15 = load ptr, ptr @qsig_err_handle, align 8
  tail call void @dissector_add_uint(ptr noundef nonnull @.str.1457, i32 noundef %14, ptr noundef %15)
  %indvars.iv.next15 = add nuw nsw i64 %indvars.iv14, 1
  %exitcond17.not = icmp eq i64 %indvars.iv.next15, 91
  br i1 %exitcond17.not, label %16, label %.preheader, !llvm.loop !10

16:                                               ; preds = %.preheader
  %17 = load ptr, ptr @qsig_ie4_handle, align 8
  tail call void @dissector_add_uint(ptr noundef nonnull @.str.1451, i32 noundef 1073, ptr noundef %17)
  %18 = load ptr, ptr @qsig_ie5_handle, align 8
  tail call void @dissector_add_uint(ptr noundef nonnull @.str.1451, i32 noundef 1330, ptr noundef %18)
  tail call void @dissector_add_string(ptr noundef nonnull @.str.1458, ptr noundef nonnull @.str.1459, ptr noundef %2)
  ret void
}